target datalayout = "e-m:e-p270:32:32-p271:32:32-p272:64:64-i64:64-i128:128-f80:128-n8:16:32:64-S128"
target triple = "x86_64-pc-linux-gnu"

%struct.CTState = type { ptr, i32, i32, ptr, ptr, ptr, %struct.CCallback, [128 x i16] }
%struct.CCallback = type { [8 x %union.FPRCBArg], [8 x i64], ptr, ptr, ptr, i32, i32, i32 }
%union.FPRCBArg = type { double }
%struct.CType = type { i32, i32, i16, i16, %struct.GCRef }
%struct.GCRef = type { i64 }

; Function Attrs: alwaysinline nounwind uwtable
define internal i32 @ctype_check(ptr noundef %0, i32 noundef %1) #5 {
  %3 = alloca ptr, align 8
  %4 = alloca i32, align 4
  store ptr %0, ptr %3, align 8, !tbaa !4
  store i32 %1, ptr %4, align 4, !tbaa !21
  %5 = load i32, ptr %4, align 4, !tbaa !21
  ret i32 %5
}

; Function Attrs: alwaysinline nounwind uwtable
define internal ptr @ctype_get(ptr noundef %0, i32 noundef %1) #5 {
  %3 = alloca ptr, align 8
  %4 = alloca i32, align 4
  store ptr %0, ptr %3, align 8, !tbaa !4
  store i32 %1, ptr %4, align 4, !tbaa !21
  %5 = load ptr, ptr %3, align 8, !tbaa !4
  %6 = getelementptr inbounds nuw %struct.CTState, ptr %5, i32 0, i32 0
  %7 = load ptr, ptr %6, align 8, !tbaa !24
  %8 = load ptr, ptr %3, align 8, !tbaa !4
  %9 = load i32, ptr %4, align 4, !tbaa !21
  %10 = call i32 @ctype_check(ptr noundef %8, i32 noundef %9)
  %11 = zext i32 %10 to i64
  %12 = getelementptr inbounds nuw %struct.CType, ptr %7, i64 %11
  ret ptr %12
}

; Function Attrs: alwaysinline nounwind uwtable
define internal i32 @hashrot(i32 noundef %0, i32 noundef %1) #5 {
  %3 = alloca i32, align 4
  %4 = alloca i32, align 4
  store i32 %0, ptr %3, align 4, !tbaa !21
  store i32 %1, ptr %4, align 4, !tbaa !21
  %5 = load i32, ptr %4, align 4, !tbaa !21
  %6 = load i32, ptr %3, align 4, !tbaa !21
  %7 = xor i32 %6, %5
  store i32 %7, ptr %3, align 4, !tbaa !21
  %8 = load i32, ptr %4, align 4, !tbaa !21
  %9 = shl i32 %8, 14
  %10 = load i32, ptr %4, align 4, !tbaa !21
  %11 = lshr i32 %10, 18
  %12 = or i32 %9, %11
  store i32 %12, ptr %4, align 4, !tbaa !21
  %13 = load i32, ptr %4, align 4, !tbaa !21
  %14 = load i32, ptr %3, align 4, !tbaa !21
  %15 = sub i32 %14, %13
  store i32 %15, ptr %3, align 4, !tbaa !21
  %16 = load i32, ptr %4, align 4, !tbaa !21
  %17 = shl i32 %16, 5
  %18 = load i32, ptr %4, align 4, !tbaa !21
  %19 = lshr i32 %18, 27
  %20 = or i32 %17, %19
  store i32 %20, ptr %4, align 4, !tbaa !21
  %21 = load i32, ptr %3, align 4, !tbaa !21
  %22 = load i32, ptr %4, align 4, !tbaa !21
  %23 = xor i32 %22, %21
  store i32 %23, ptr %4, align 4, !tbaa !21
  %24 = load i32, ptr %3, align 4, !tbaa !21
  %25 = shl i32 %24, 13
  %26 = load i32, ptr %3, align 4, !tbaa !21
  %27 = lshr i32 %26, 19
  %28 = or i32 %25, %27
  %29 = load i32, ptr %4, align 4, !tbaa !21
  %30 = sub i32 %29, %28
  store i32 %30, ptr %4, align 4, !tbaa !21
  %31 = load i32, ptr %4, align 4, !tbaa !21
  ret i32 %31
}

; Function Attrs: nounwind uwtable
define hidden i32 @lj_ctype_intern(ptr noundef %0, i32 noundef %1, i32 noundef %2) #0 {
  %4 = alloca i32, align 4
  %5 = alloca ptr, align 8
  %6 = alloca i32, align 4
  %7 = alloca i32, align 4
  %8 = alloca i32, align 4
  %9 = alloca i32, align 4
  %10 = alloca ptr, align 8
  %11 = alloca i32, align 4
  store ptr %0, ptr %5, align 8, !tbaa !4
  store i32 %1, ptr %6, align 4, !tbaa !21
  store i32 %2, ptr %7, align 4, !tbaa !21
  call void @llvm.lifetime.start.p0(i64 4, ptr %8) #8
  %12 = load i32, ptr %6, align 4, !tbaa !21
  %13 = load i32, ptr %7, align 4, !tbaa !21
  %14 = call i32 @hashrot(i32 noundef %12, i32 noundef %13)
  %15 = and i32 %14, 127
  store i32 %15, ptr %8, align 4, !tbaa !21
  call void @llvm.lifetime.start.p0(i64 4, ptr %9) #8
  %16 = load ptr, ptr %5, align 8, !tbaa !4
  %17 = getelementptr inbounds nuw %struct.CTState, ptr %16, i32 0, i32 7
  %18 = load i32, ptr %8, align 4, !tbaa !21
  %19 = zext i32 %18 to i64
  %20 = getelementptr inbounds nuw [128 x i16], ptr %17, i64 0, i64 %19
  %21 = load i16, ptr %20, align 2, !tbaa !35
  %22 = zext i16 %21 to i32
  store i32 %22, ptr %9, align 4, !tbaa !21
  br label %23

23:                                               ; preds = %50, %3
  %24 = load i32, ptr %9, align 4, !tbaa !21
  %25 = icmp ne i32 %24, 0
  br i1 %25, label %26, label %51

26:                                               ; preds = %23
  call void @llvm.lifetime.start.p0(i64 8, ptr %10) #8
  %27 = load ptr, ptr %5, align 8, !tbaa !4
  %28 = load i32, ptr %9, align 4, !tbaa !21
  %29 = call ptr @ctype_get(ptr noundef %27, i32 noundef %28)
  store ptr %29, ptr %10, align 8, !tbaa !25
  %30 = load ptr, ptr %10, align 8, !tbaa !25
  %31 = getelementptr inbounds nuw %struct.CType, ptr %30, i32 0, i32 0
  %32 = load i32, ptr %31, align 8, !tbaa !26
  %33 = load i32, ptr %6, align 4, !tbaa !21
  %34 = icmp eq i32 %32, %33
  br i1 %34, label %35, label %43

35:                                               ; preds = %26
  %36 = load ptr, ptr %10, align 8, !tbaa !25
  %37 = getelementptr inbounds nuw %struct.CType, ptr %36, i32 0, i32 1
  %38 = load i32, ptr %37, align 4, !tbaa !31
  %39 = load i32, ptr %7, align 4, !tbaa !21
  %40 = icmp eq i32 %38, %39
  br i1 %40, label %41, label %43

41:                                               ; preds = %35
  %42 = load i32, ptr %9, align 4, !tbaa !21
  store i32 %42, ptr %4, align 4
  store i32 1, ptr %11, align 4
  br label %48

43:                                               ; preds = %35, %26
  %44 = load ptr, ptr %10, align 8, !tbaa !25
  %45 = getelementptr inbounds nuw %struct.CType, ptr %44, i32 0, i32 3
  %46 = load i16, ptr %45, align 2, !tbaa !33
  %47 = zext i16 %46 to i32
  store i32 %47, ptr %9, align 4, !tbaa !21
  store i32 0, ptr %11, align 4
  br label %48

48:                                               ; preds = %43, %41
  call void @llvm.lifetime.end.p0(i64 8, ptr %10) #8
  %49 = load i32, ptr %11, align 4
  switch i32 %49, label %142 [
    i32 0, label %50
  ]

50:                                               ; preds = %48
  br label %23, !llvm.loop !36

51:                                               ; preds = %23
  %52 = load ptr, ptr %5, align 8, !tbaa !4
  %53 = getelementptr inbounds nuw %struct.CTState, ptr %52, i32 0, i32 1
  %54 = load i32, ptr %53, align 8, !tbaa !11
  store i32 %54, ptr %9, align 4, !tbaa !21
  %55 = load i32, ptr %9, align 4, !tbaa !21
  %56 = load ptr, ptr %5, align 8, !tbaa !4
  %57 = getelementptr inbounds nuw %struct.CTState, ptr %56, i32 0, i32 2
  %58 = load i32, ptr %57, align 4, !tbaa !22
  %59 = icmp uge i32 %55, %58
  %60 = xor i1 %59, true
  %61 = xor i1 %60, true
  %62 = zext i1 %61 to i32
  %63 = sext i32 %62 to i64
  %64 = call i64 @llvm.expect.i64(i64 %63, i64 0)
  %65 = icmp ne i64 %64, 0
  br i1 %65, label %66, label %85

66:                                               ; preds = %51
  %67 = load i32, ptr %9, align 4, !tbaa !21
  %68 = icmp uge i32 %67, 65536
  br i1 %68, label %69, label %73

69:                                               ; preds = %66
  %70 = load ptr, ptr %5, align 8, !tbaa !4
  %71 = getelementptr inbounds nuw %struct.CTState, ptr %70, i32 0, i32 3
  %72 = load ptr, ptr %71, align 8, !tbaa !23
  call void @lj_err_msg(ptr noundef %72, i32 noundef 139) #9
  unreachable

73:                                               ; preds = %66
  %74 = load ptr, ptr %5, align 8, !tbaa !4
  %75 = getelementptr inbounds nuw %struct.CTState, ptr %74, i32 0, i32 3
  %76 = load ptr, ptr %75, align 8, !tbaa !23
  %77 = load ptr, ptr %5, align 8, !tbaa !4
  %78 = getelementptr inbounds nuw %struct.CTState, ptr %77, i32 0, i32 0
  %79 = load ptr, ptr %78, align 8, !tbaa !24
  %80 = load ptr, ptr %5, align 8, !tbaa !4
  %81 = getelementptr inbounds nuw %struct.CTState, ptr %80, i32 0, i32 2
  %82 = call ptr @lj_mem_grow(ptr noundef %76, ptr noundef %79, ptr noundef %81, i32 noundef 65536, i32 noundef 24)
  %83 = load ptr, ptr %5, align 8, !tbaa !4
  %84 = getelementptr inbounds nuw %struct.CTState, ptr %83, i32 0, i32 0
  store ptr %82, ptr %84, align 8, !tbaa !24
  br label %85

85:                                               ; preds = %73, %51
  %86 = load i32, ptr %9, align 4, !tbaa !21
  %87 = add i32 %86, 1
  %88 = load ptr, ptr %5, align 8, !tbaa !4
  %89 = getelementptr inbounds nuw %struct.CTState, ptr %88, i32 0, i32 1
  store i32 %87, ptr %89, align 8, !tbaa !11
  %90 = load i32, ptr %6, align 4, !tbaa !21
  %91 = load ptr, ptr %5, align 8, !tbaa !4
  %92 = getelementptr inbounds nuw %struct.CTState, ptr %91, i32 0, i32 0
  %93 = load ptr, ptr %92, align 8, !tbaa !24
  %94 = load i32, ptr %9, align 4, !tbaa !21
  %95 = zext i32 %94 to i64
  %96 = getelementptr inbounds nuw %struct.CType, ptr %93, i64 %95
  %97 = getelementptr inbounds nuw %struct.CType, ptr %96, i32 0, i32 0
  store i32 %90, ptr %97, align 8, !tbaa !26
  %98 = load i32, ptr %7, align 4, !tbaa !21
  %99 = load ptr, ptr %5, align 8, !tbaa !4
  %100 = getelementptr inbounds nuw %struct.CTState, ptr %99, i32 0, i32 0
  %101 = load ptr, ptr %100, align 8, !tbaa !24
  %102 = load i32, ptr %9, align 4, !tbaa !21
  %103 = zext i32 %102 to i64
  %104 = getelementptr inbounds nuw %struct.CType, ptr %101, i64 %103
  %105 = getelementptr inbounds nuw %struct.CType, ptr %104, i32 0, i32 1
  store i32 %98, ptr %105, align 4, !tbaa !31
  %106 = load ptr, ptr %5, align 8, !tbaa !4
  %107 = getelementptr inbounds nuw %struct.CTState, ptr %106, i32 0, i32 0
  %108 = load ptr, ptr %107, align 8, !tbaa !24
  %109 = load i32, ptr %9, align 4, !tbaa !21
  %110 = zext i32 %109 to i64
  %111 = getelementptr inbounds nuw %struct.CType, ptr %108, i64 %110
  %112 = getelementptr inbounds nuw %struct.CType, ptr %111, i32 0, i32 2
  store i16 0, ptr %112, align 8, !tbaa !32
  %113 = load ptr, ptr %5, align 8, !tbaa !4
  %114 = getelementptr inbounds nuw %struct.CTState, ptr %113, i32 0, i32 7
  %115 = load i32, ptr %8, align 4, !tbaa !21
  %116 = zext i32 %115 to i64
  %117 = getelementptr inbounds nuw [128 x i16], ptr %114, i64 0, i64 %116
  %118 = load i16, ptr %117, align 2, !tbaa !35
  %119 = load ptr, ptr %5, align 8, !tbaa !4
  %120 = getelementptr inbounds nuw %struct.CTState, ptr %119, i32 0, i32 0
  %121 = load ptr, ptr %120, align 8, !tbaa !24
  %122 = load i32, ptr %9, align 4, !tbaa !21
  %123 = zext i32 %122 to i64
  %124 = getelementptr inbounds nuw %struct.CType, ptr %121, i64 %123
  %125 = getelementptr inbounds nuw %struct.CType, ptr %124, i32 0, i32 3
  store i16 %118, ptr %125, align 2, !tbaa !33
  %126 = load ptr, ptr %5, align 8, !tbaa !4
  %127 = getelementptr inbounds nuw %struct.CTState, ptr %126, i32 0, i32 0
  %128 = load ptr, ptr %127, align 8, !tbaa !24
  %129 = load i32, ptr %9, align 4, !tbaa !21
  %130 = zext i32 %129 to i64
  %131 = getelementptr inbounds nuw %struct.CType, ptr %128, i64 %130
  %132 = getelementptr inbounds nuw %struct.CType, ptr %131, i32 0, i32 4
  %133 = getelementptr inbounds nuw %struct.GCRef, ptr %132, i32 0, i32 0
  store i64 0, ptr %133, align 8, !tbaa !34
  %134 = load i32, ptr %9, align 4, !tbaa !21
  %135 = trunc i32 %134 to i16
  %136 = load ptr, ptr %5, align 8, !tbaa !4
  %137 = getelementptr inbounds nuw %struct.CTState, ptr %136, i32 0, i32 7
  %138 = load i32, ptr %8, align 4, !tbaa !21
  %139 = zext i32 %138 to i64
  %140 = getelementptr inbounds nuw [128 x i16], ptr %137, i64 0, i64 %139
  store i16 %135, ptr %140, align 2, !tbaa !35
  %141 = load i32, ptr %9, align 4, !tbaa !21
  store i32 %141, ptr %4, align 4
  store i32 1, ptr %11, align 4
  br label %142

142:                                              ; preds = %85, %48
  call void @llvm.lifetime.end.p0(i64 4, ptr %9) #8
  call void @llvm.lifetime.end.p0(i64 4, ptr %8) #8
  %143 = load i32, ptr %4, align 4
  ret i32 %143
}