; Function Attrs: nounwind uwtable
define hidden range(i32 0, -1) i32 @lj_ctype_intern(ptr noundef %0, i32 noundef %1, i32 noundef %2) local_unnamed_addr #0 {
  %4 = xor i32 %2, %1
  %5 = tail call i32 @llvm.fshl.i32(i32 %2, i32 %2, i32 14)
  %6 = sub i32 %4, %5
  %7 = tail call i32 @llvm.fshl.i32(i32 %5, i32 %5, i32 5)
  %8 = xor i32 %7, %6
  %9 = lshr i32 %6, 19
  %10 = sub i32 %8, %9
  %11 = and i32 %10, 127
  %12 = getelementptr inbounds nuw i8, ptr %0, i64 208
  %13 = zext nneg i32 %11 to i64
  %14 = getelementptr inbounds nuw [128 x i16], ptr %12, i64 0, i64 %13
  %.044.in52 = load i16, ptr %14, align 2, !tbaa !27
  %.not53 = icmp eq i16 %.044.in52, 0
  br i1 %.not53, label %._crit_edge, label %.lr.ph

.lr.ph:                                           ; preds = %3
  %15 = load ptr, ptr %0, align 8, !tbaa !19
  br label %16

16:                                               ; preds = %.lr.ph, %25
  %.044.in54 = phi i16 [ %.044.in52, %.lr.ph ], [ %.044.in, %25 ]
  %17 = zext i16 %.044.in54 to i64
  %18 = getelementptr inbounds nuw %struct.CType, ptr %15, i64 %17
  %19 = load i32, ptr %18, align 8, !tbaa !28
  %20 = icmp eq i32 %19, %1
  br i1 %20, label %21, label %25

21:                                               ; preds = %16
  %22 = getelementptr inbounds nuw i8, ptr %18, i64 4
  %23 = load i32, ptr %22, align 4, !tbaa !29
  %24 = icmp eq i32 %23, %2
  br i1 %24, label %.thread.loopexit, label %25

25:                                               ; preds = %16, %21
  %26 = getelementptr inbounds nuw i8, ptr %18, i64 10
  %.044.in = load i16, ptr %26, align 2, !tbaa !27
  %.not = icmp eq i16 %.044.in, 0
  br i1 %.not, label %._crit_edge, label %16, !llvm.loop !30

._crit_edge:                                      ; preds = %25, %3
  %27 = getelementptr inbounds nuw i8, ptr %0, i64 8
  %28 = load i32, ptr %27, align 8, !tbaa !4
  %29 = getelementptr inbounds nuw i8, ptr %0, i64 12
  %30 = load i32, ptr %29, align 4, !tbaa !17
  %.not47 = icmp ult i32 %28, %30
  br i1 %.not47, label %._crit_edge._crit_edge, label %31, !prof !18

._crit_edge._crit_edge:                           ; preds = %._crit_edge
  %.pre = load ptr, ptr %0, align 8, !tbaa !19
  br label %39

31:                                               ; preds = %._crit_edge
  %32 = icmp ugt i32 %28, 65535
  %33 = getelementptr inbounds nuw i8, ptr %0, i64 16
  %34 = load ptr, ptr %33, align 8, !tbaa !20
  br i1 %32, label %35, label %36

35:                                               ; preds = %31
  tail call void @lj_err_msg(ptr noundef %34, i32 noundef 139) #13
  unreachable

36:                                               ; preds = %31
  %37 = load ptr, ptr %0, align 8, !tbaa !19
  %38 = tail call ptr @lj_mem_grow(ptr noundef %34, ptr noundef %37, ptr noundef nonnull %29, i32 noundef 65536, i32 noundef 24) #14
  store ptr %38, ptr %0, align 8, !tbaa !19
  br label %39

39:                                               ; preds = %._crit_edge._crit_edge, %36
  %40 = phi ptr [ %.pre, %._crit_edge._crit_edge ], [ %38, %36 ]
  %41 = add nuw i32 %28, 1
  store i32 %41, ptr %27, align 8, !tbaa !4
  %42 = zext i32 %28 to i64
  %43 = getelementptr inbounds nuw %struct.CType, ptr %40, i64 %42
  store i32 %1, ptr %43, align 8, !tbaa !28
  %44 = getelementptr inbounds nuw %struct.CType, ptr %40, i64 %42, i32 1
  store i32 %2, ptr %44, align 4, !tbaa !29
  %45 = getelementptr inbounds nuw %struct.CType, ptr %40, i64 %42, i32 2
  store i16 0, ptr %45, align 8, !tbaa !32
  %46 = load i16, ptr %14, align 2, !tbaa !27
  %47 = getelementptr inbounds nuw %struct.CType, ptr %40, i64 %42, i32 3
  store i16 %46, ptr %47, align 2, !tbaa !33
  %48 = getelementptr inbounds nuw %struct.CType, ptr %40, i64 %42, i32 4
  store i64 0, ptr %48, align 8, !tbaa !22
  %49 = trunc i32 %28 to i16
  store i16 %49, ptr %14, align 2, !tbaa !27
  br label %.thread

.thread.loopexit:                                 ; preds = %21
  %.044.le = zext i16 %.044.in54 to i32
  br label %.thread

.thread:                                          ; preds = %.thread.loopexit, %39
  %.2 = phi i32 [ %28, %39 ], [ %.044.le, %.thread.loopexit ]
  ret i32 %.2
}